Certificate:
    Data:
        Version: 3 (0x2)
        Serial Number: 2 (0x2)
    Signature Algorithm: sha256WithRSAEncryption
        Issuer: C=US, ST=CA, L=SanFrancisco, O=Fort-Funston, OU=goproxy, CN=Fort-Funston CA/name=EasyRSA/emailAddress=me@myhost.mydomain
        Validity
            Not Before: Aug 12 11:11:56 2017 GMT
            Not After : Aug 10 11:11:56 2027 GMT
        Subject: C=US, ST=CA, L=SanFrancisco, O=Fort-Funston, OU=goproxy, CN=server/name=EasyRSA/emailAddress=me@myhost.mydomain
        Subject Public Key Info:
            Public Key Algorithm: rsaEncryption
                Public-Key: (2048 bit)
                Modulus:
                    00:c0:cc:eb:f7:3c:d8:73:f8:3a:e1:9d:d0:b9:be:
                    df:ab:3b:fc:57:82:21:cc:e8:ea:1d:47:10:72:cd:
                    22:9f:3a:4a:12:8c:e4:19:a8:fd:62:22:75:97:f6:
                    f4:bf:b9:98:89:fb:09:e5:28:8e:c9:b5:ca:7e:35:
                    bc:e6:fb:26:26:6a:2f:47:10:80:6b:f8:96:b4:83:
                    5a:46:22:b6:fc:d3:d8:9f:07:a9:90:e2:a4:15:89:
                    a9:c4:b6:8a:45:11:30:7b:51:ad:bb:84:fb:50:5d:
                    a5:ea:1e:87:bf:c0:8f:1e:d0:40:76:2d:f0:ca:e0:
                    92:92:23:db:bb:2d:d1:93:d0:85:2c:14:31:3c:6e:
                    a7:79:ca:33:05:01:c9:ba:4a:24:1e:34:f8:c2:0c:
                    f3:ef:3a:59:ad:4e:d1:2d:d6:b1:b2:2f:1c:7e:4b:
                    05:c9:9c:dc:a7:e2:98:a5:6f:e2:05:8c:0b:01:c8:
                    01:0c:3a:2b:a7:5c:de:6f:0e:33:10:ec:2f:23:60:
                    29:7d:11:0c:c2:ee:ff:e0:7d:6d:ca:36:25:e3:15:
                    93:61:db:ce:14:f5:2f:b6:ea:0e:05:10:21:e1:e6:
                    ea:af:79:dc:80:0c:53:4c:9e:44:57:b9:e2:61:9f:
                    a0:a8:55:b7:4c:85:2b:76:2c:b5:82:8d:19:c1:95:
                    15:35
                Exponent: 65537 (0x10001)
        X509v3 extensions:
            X509v3 Basic Constraints: 
                CA:FALSE
            Netscape Cert Type: 
                SSL Server
            Netscape Comment: 
                Easy-RSA Generated Server Certificate
            X509v3 Subject Key Identifier: 
                40:E6:E1:BA:8D:CA:78:E6:5E:56:F6:C6:E5:50:BB:73:D2:6D:A4:76
            X509v3 Authority Key Identifier: 
                keyid:1F:82:7F:99:D3:16:53:0B:02:FC:F1:8F:3A:DD:90:0D:16:F2:BF:42
                DirName:/C=US/ST=CA/L=SanFrancisco/O=Fort-Funston/OU=goproxy/CN=Fort-Funston CA/name=EasyRSA/emailAddress=me@myhost.mydomain
                serial:90:BF:2C:CE:4B:FC:3C:C0

            X509v3 Extended Key Usage: 
                TLS Web Server Authentication
            X509v3 Key Usage: 
                Digital Signature, Key Encipherment
            X509v3 Subject Alternative Name: 
                DNS:server
    Signature Algorithm: sha256WithRSAEncryption
         46:80:5a:e5:1a:f8:14:59:f5:1c:00:a4:50:cd:58:b6:f5:86:
         01:05:6a:39:ee:9e:5c:76:b1:dd:c6:a4:45:26:a4:64:99:77:
         ff:f1:74:71:cb:49:5d:ef:94:dd:c1:d8:fb:ee:e7:dc:93:db:
         80:41:e4:f0:cc:2a:8e:77:a8:b5:b1:a2:39:b4:66:54:cd:68:
         85:dc:34:1e:16:fa:2c:a6:a5:ee:a3:15:58:c9:ce:04:ff:7b:
         dd:93:9f:4d:89:f3:2b:9e:25:c2:15:7a:15:ae:70:5c:c3:01:
         89:37:c0:80:75:e2:1b:ad:ab:49:bf:0a:18:99:9a:4b:c9:e4:
         be:49:13:18:d0:c3:01:e2:27:fc:0e:2d:50:83:63:31:7f:31:
         39:a0:07:00:68:7c:df:68:cf:67:79:aa:53:53:bb:80:9e:c0:
         f9:0e:53:4e:29:7b:1a:df:72:15:cf:60:55:07:40:88:33:43:
         1f:36:65:7a:92:ce:20:2f:c1:a6:b2:50:5b:52:df:ef:d3:2e:
         0a:23:3f:fa:9e:35:59:4a:03:bc:7c:f4:46:5c:26:66:f6:e8:
         74:36:c1:98:a6:f3:0b:2d:cc:bc:07:70:ca:40:38:f8:94:0a:
         db:0e:98:90:11:ca:9a:cf:8a:0a:b0:e2:59:1d:a8:94:4a:3c:
         38:45:0a:d2
-----BEGIN CERTIFICATE-----
MIIFVTCCBD2gAwIBAgIBAjANBgkqhkiG9w0BAQsFADCBqTELMAkGA1UEBhMCVVMx
CzAJBgNVBAgTAkNBMRUwEwYDVQQHEwxTYW5GcmFuY2lzY28xFTATBgNVBAoTDEZv
cnQtRnVuc3RvbjEQMA4GA1UECxMHZ29wcm94eTEYMBYGA1UEAxMPRm9ydC1GdW5z
dG9uIENBMRAwDgYDVQQpEwdFYXN5UlNBMSEwHwYJKoZIhvcNAQkBFhJtZUBteWhv
c3QubXlkb21haW4wHhcNMTcwODEyMTExMTU2WhcNMjcwODEwMTExMTU2WjCBoDEL
MAkGA1UEBhMCVVMxCzAJBgNVBAgTAkNBMRUwEwYDVQQHEwxTYW5GcmFuY2lzY28x
FTATBgNVBAoTDEZvcnQtRnVuc3RvbjEQMA4GA1UECxMHZ29wcm94eTEPMA0GA1UE
AxMGc2VydmVyMRAwDgYDVQQpEwdFYXN5UlNBMSEwHwYJKoZIhvcNAQkBFhJtZUBt
eWhvc3QubXlkb21haW4wggEiMA0GCSqGSIb3DQEBAQUAA4IBDwAwggEKAoIBAQDA
zOv3PNhz+DrhndC5vt+rO/xXgiHM6OodRxByzSKfOkoSjOQZqP1iInWX9vS/uZiJ
+wnlKI7Jtcp+Nbzm+yYmai9HEIBr+Ja0g1pGIrb809ifB6mQ4qQVianEtopFETB7
Ua27hPtQXaXqHoe/wI8e0EB2LfDK4JKSI9u7LdGT0IUsFDE8bqd5yjMFAcm6SiQe
NPjCDPPvOlmtTtEt1rGyLxx+SwXJnNyn4pilb+IFjAsByAEMOiunXN5vDjMQ7C8j
YCl9EQzC7v/gfW3KNiXjFZNh284U9S+26g4FECHh5uqvedyADFNMnkRXueJhn6Co
VbdMhSt2LLWCjRnBlRU1AgMBAAGjggGNMIIBiTAJBgNVHRMEAjAAMBEGCWCGSAGG
+EIBAQQEAwIGQDA0BglghkgBhvhCAQ0EJxYlRWFzeS1SU0EgR2VuZXJhdGVkIFNl
cnZlciBDZXJ0aWZpY2F0ZTAdBgNVHQ4EFgQUQObhuo3KeOZeVvbG5VC7c9JtpHYw
gd4GA1UdIwSB1jCB04AUH4J/mdMWUwsC/PGPOt2QDRbyv0Khga+kgawwgakxCzAJ
BgNVBAYTAlVTMQswCQYDVQQIEwJDQTEVMBMGA1UEBxMMU2FuRnJhbmNpc2NvMRUw
EwYDVQQKEwxGb3J0LUZ1bnN0b24xEDAOBgNVBAsTB2dvcHJveHkxGDAWBgNVBAMT
D0ZvcnQtRnVuc3RvbiBDQTEQMA4GA1UEKRMHRWFzeVJTQTEhMB8GCSqGSIb3DQEJ
ARYSbWVAbXlob3N0Lm15ZG9tYWluggkAkL8szkv8PMAwEwYDVR0lBAwwCgYIKwYB
BQUHAwEwCwYDVR0PBAQDAgWgMBEGA1UdEQQKMAiCBnNlcnZlcjANBgkqhkiG9w0B
AQsFAAOCAQEARoBa5Rr4FFn1HACkUM1YtvWGAQVqOe6eXHax3cakRSakZJl3//F0
cctJXe+U3cHY++7n3JPbgEHk8MwqjneotbGiObRmVM1ohdw0Hhb6LKal7qMVWMnO
BP973ZOfTYnzK54lwhV6Fa5wXMMBiTfAgHXiG62rSb8KGJmaS8nkvkkTGNDDAeIn
/A4tUINjMX8xOaAHAGh832jPZ3mqU1O7gJ7A+Q5TTil7Gt9yFc9gVQdAiDNDHzZl
epLOIC/BprJQW1Lf79MuCiM/+p41WUoDvHz0RlwmZvbodDbBmKbzCy3MvAdwykA4
+JQK2w6YkBHKms+KCrDiWR2olEo8OEUK0g==
-----END CERTIFICATE-----
