Certificate:
    Data:
        Version: 3 (0x2)
        Serial Number: 1 (0x1)
    Signature Algorithm: sha256WithRSAEncryption
        Issuer: C=US, ST=CA, L=SanFrancisco, O=Fort-Funston, OU=goproxy, CN=Fort-Funston CA/name=EasyRSA/emailAddress=me@myhost.mydomain
        Validity
            Not Before: Aug 12 11:11:40 2017 GMT
            Not After : Aug 10 11:11:40 2027 GMT
        Subject: C=US, ST=CA, L=SanFrancisco, O=Fort-Funston, OU=goproxy, CN=user/name=EasyRSA/emailAddress=me@myhost.mydomain
        Subject Public Key Info:
            Public Key Algorithm: rsaEncryption
                Public-Key: (2048 bit)
                Modulus:
                    00:a5:96:48:ae:2a:27:4f:d6:3a:1c:8c:9e:b1:d5:
                    fe:da:59:cb:e4:27:50:84:65:22:68:5e:99:2a:3e:
                    91:93:bb:15:ec:95:87:65:4c:8b:08:38:c5:1a:5e:
                    82:e7:4c:ae:2e:53:ab:01:ce:85:3d:22:11:c0:bf:
                    92:2e:dd:4e:d2:fd:35:71:62:29:9c:9f:0d:dc:7b:
                    0e:3d:dc:25:aa:22:b5:af:31:8b:64:69:f7:0f:e4:
                    46:01:01:71:66:74:f3:88:14:09:15:87:8c:34:37:
                    7c:b8:41:1e:62:0b:bc:b0:43:30:47:a6:f6:19:42:
                    3d:aa:8d:89:f6:01:95:1d:73:e6:8e:89:60:55:f2:
                    38:08:e8:a5:07:41:c9:8c:eb:dd:aa:2c:9d:47:31:
                    53:c1:d1:b6:4d:5a:a0:b4:52:f4:7b:87:59:26:4c:
                    fc:fb:6f:8a:fd:0f:70:35:61:1c:e8:0d:45:6e:b8:
                    a7:5e:c2:cb:4d:9e:ce:6f:d7:26:52:45:4d:24:e2:
                    3b:73:2b:a1:17:36:e6:04:fe:1c:7c:2a:e9:21:55:
                    62:99:be:d3:ab:87:ac:c8:a1:e5:b0:f3:af:76:61:
                    57:46:f0:90:19:35:c7:13:01:3e:a2:4e:27:88:1e:
                    bb:b1:22:2a:22:9e:8c:b9:5d:d5:12:79:ff:40:15:
                    80:ab
                Exponent: 65537 (0x10001)
        X509v3 extensions:
            X509v3 Basic Constraints: 
                CA:FALSE
            Netscape Comment: 
                Easy-RSA Generated Certificate
            X509v3 Subject Key Identifier: 
                2C:53:BF:18:EB:1A:C3:28:E3:6F:57:60:47:25:E4:09:01:16:A4:62
            X509v3 Authority Key Identifier: 
                keyid:1F:82:7F:99:D3:16:53:0B:02:FC:F1:8F:3A:DD:90:0D:16:F2:BF:42
                DirName:/C=US/ST=CA/L=SanFrancisco/O=Fort-Funston/OU=goproxy/CN=Fort-Funston CA/name=EasyRSA/emailAddress=me@myhost.mydomain
                serial:90:BF:2C:CE:4B:FC:3C:C0

            X509v3 Extended Key Usage: 
                TLS Web Client Authentication
            X509v3 Key Usage: 
                Digital Signature
            X509v3 Subject Alternative Name: 
                DNS:user
    Signature Algorithm: sha256WithRSAEncryption
         02:ef:50:2c:73:63:60:bb:74:bb:d3:0d:d0:90:2b:59:d4:8b:
         07:5b:03:16:b6:60:c8:49:f8:62:56:f7:bd:7b:94:3b:ec:ff:
         42:b7:af:17:27:83:ce:b9:95:89:23:2f:1b:5b:21:42:75:02:
         b9:41:16:55:f6:82:c4:a6:44:eb:c1:58:e2:dc:0f:6b:fb:86:
         1d:c8:21:46:6e:8c:35:e6:ca:5b:54:a1:2f:d2:84:ed:a9:ee:
         f2:1e:fd:bd:a2:37:d7:35:c6:e1:f6:16:ee:9a:ed:b4:2b:a0:
         b2:72:35:99:b6:40:62:e8:e1:fd:85:93:f2:ba:bf:4a:2b:4d:
         12:81:a1:6e:9a:07:90:20:49:5e:e8:a8:37:54:97:fe:12:9a:
         73:e1:58:cf:e2:f5:ed:87:0d:58:65:92:15:7c:9c:1c:12:32:
         dd:bd:08:1c:b5:73:82:c6:f4:5b:b4:6d:09:2b:ab:4f:ab:3d:
         0a:66:41:dc:b4:8b:41:a5:fa:0c:e9:20:b0:0a:5b:e6:cb:6d:
         ee:e1:d9:b6:22:c7:58:29:4a:ae:2f:09:34:1b:01:d6:cd:a1:
         eb:d7:00:3e:7a:bd:36:8f:22:aa:b7:69:93:4f:ad:92:ac:de:
         d5:b6:3c:7f:aa:38:72:a3:62:b7:e0:a2:e3:f3:1b:76:43:dc:
         ae:69:5e:53
-----BEGIN CERTIFICATE-----
MIIFNzCCBB+gAwIBAgIBATANBgkqhkiG9w0BAQsFADCBqTELMAkGA1UEBhMCVVMx
CzAJBgNVBAgTAkNBMRUwEwYDVQQHEwxTYW5GcmFuY2lzY28xFTATBgNVBAoTDEZv
cnQtRnVuc3RvbjEQMA4GA1UECxMHZ29wcm94eTEYMBYGA1UEAxMPRm9ydC1GdW5z
dG9uIENBMRAwDgYDVQQpEwdFYXN5UlNBMSEwHwYJKoZIhvcNAQkBFhJtZUBteWhv
c3QubXlkb21haW4wHhcNMTcwODEyMTExMTQwWhcNMjcwODEwMTExMTQwWjCBnjEL
MAkGA1UEBhMCVVMxCzAJBgNVBAgTAkNBMRUwEwYDVQQHEwxTYW5GcmFuY2lzY28x
FTATBgNVBAoTDEZvcnQtRnVuc3RvbjEQMA4GA1UECxMHZ29wcm94eTENMAsGA1UE
AxMEdXNlcjEQMA4GA1UEKRMHRWFzeVJTQTEhMB8GCSqGSIb3DQEJARYSbWVAbXlo
b3N0Lm15ZG9tYWluMIIBIjANBgkqhkiG9w0BAQEFAAOCAQ8AMIIBCgKCAQEApZZI
rionT9Y6HIyesdX+2lnL5CdQhGUiaF6ZKj6Rk7sV7JWHZUyLCDjFGl6C50yuLlOr
Ac6FPSIRwL+SLt1O0v01cWIpnJ8N3HsOPdwlqiK1rzGLZGn3D+RGAQFxZnTziBQJ
FYeMNDd8uEEeYgu8sEMwR6b2GUI9qo2J9gGVHXPmjolgVfI4COilB0HJjOvdqiyd
RzFTwdG2TVqgtFL0e4dZJkz8+2+K/Q9wNWEc6A1FbrinXsLLTZ7Ob9cmUkVNJOI7
cyuhFzbmBP4cfCrpIVVimb7Tq4esyKHlsPOvdmFXRvCQGTXHEwE+ok4niB67sSIq
Ip6MuV3VEnn/QBWAqwIDAQABo4IBcTCCAW0wCQYDVR0TBAIwADAtBglghkgBhvhC
AQ0EIBYeRWFzeS1SU0EgR2VuZXJhdGVkIENlcnRpZmljYXRlMB0GA1UdDgQWBBQs
U78Y6xrDKONvV2BHJeQJARakYjCB3gYDVR0jBIHWMIHTgBQfgn+Z0xZTCwL88Y86
3ZANFvK/QqGBr6SBrDCBqTELMAkGA1UEBhMCVVMxCzAJBgNVBAgTAkNBMRUwEwYD
VQQHEwxTYW5GcmFuY2lzY28xFTATBgNVBAoTDEZvcnQtRnVuc3RvbjEQMA4GA1UE
CxMHZ29wcm94eTEYMBYGA1UEAxMPRm9ydC1GdW5zdG9uIENBMRAwDgYDVQQpEwdF
YXN5UlNBMSEwHwYJKoZIhvcNAQkBFhJtZUBteWhvc3QubXlkb21haW6CCQCQvyzO
S/w8wDATBgNVHSUEDDAKBggrBgEFBQcDAjALBgNVHQ8EBAMCB4AwDwYDVR0RBAgw
BoIEdXNlcjANBgkqhkiG9w0BAQsFAAOCAQEAAu9QLHNjYLt0u9MN0JArWdSLB1sD
FrZgyEn4Ylb3vXuUO+z/QrevFyeDzrmViSMvG1shQnUCuUEWVfaCxKZE68FY4twP
a/uGHcghRm6MNebKW1ShL9KE7anu8h79vaI31zXG4fYW7prttCugsnI1mbZAYujh
/YWT8rq/SitNEoGhbpoHkCBJXuioN1SX/hKac+FYz+L17YcNWGWSFXycHBIy3b0I
HLVzgsb0W7RtCSurT6s9CmZB3LSLQaX6DOkgsApb5stt7uHZtiLHWClKri8JNBsB
1s2h69cAPnq9No8iqrdpk0+tkqze1bY8f6o4cqNit+Ci4/MbdkPcrmleUw==
-----END CERTIFICATE-----
